target datalayout = "e-m:e-p270:32:32-p271:32:32-p272:64:64-i64:64-i128:128-f80:128-n8:16:32:64-S128"
target triple = "x86_64-pc-linux-gnu"

%struct.strbuf = type { i64, i64, ptr }
%struct.object_id = type { [32 x i8], i32 }
%struct.patch = type { ptr, ptr, ptr, i32, i32, i32, i32, i32, i32, i32, i32, i32, i32, i16, ptr, ptr, i64, [65 x i8], [65 x i8], ptr, [3 x %struct.object_id] }

@__const.say_patch_name.sb = private unnamed_addr constant %struct.strbuf { i64 0, i64 0, ptr @strbuf_slopbuf }, align 8
@.str.168 = private unnamed_addr constant [5 x i8] c" => \00", align 1

; Function Attrs: inlinehint nounwind uwtable
define internal void @strbuf_addstr(ptr noundef %0, ptr noundef %1) #3 {
  %3 = alloca ptr, align 8
  %4 = alloca ptr, align 8
  store ptr %0, ptr %3, align 8, !tbaa !75
  store ptr %1, ptr %4, align 8, !tbaa !11
  %5 = load ptr, ptr %3, align 8, !tbaa !75
  %6 = load ptr, ptr %4, align 8, !tbaa !11
  %7 = load ptr, ptr %4, align 8, !tbaa !11
  %8 = call i64 @strlen(ptr noundef %7) #11
  call void @strbuf_add(ptr noundef %5, ptr noundef %6, i64 noundef %8)
  ret void
}

; Function Attrs: nounwind uwtable
define internal void @say_patch_name(ptr noundef %0, ptr noundef %1, ptr noundef %2) #0 {
  %4 = alloca ptr, align 8
  %5 = alloca ptr, align 8
  %6 = alloca ptr, align 8
  %7 = alloca %struct.strbuf, align 8
  %8 = alloca ptr, align 8
  store ptr %0, ptr %4, align 8, !tbaa !131
  store ptr %1, ptr %5, align 8, !tbaa !11
  store ptr %2, ptr %6, align 8, !tbaa !60
  call void @llvm.lifetime.start.p0(i64 24, ptr %7) #12
  call void @llvm.memcpy.p0.p0.i64(ptr align 8 %7, ptr align 8 @__const.say_patch_name.sb, i64 24, i1 false)
  %9 = load ptr, ptr %6, align 8, !tbaa !60
  %10 = getelementptr inbounds nuw %struct.patch, ptr %9, i32 0, i32 1
  %11 = load ptr, ptr %10, align 8, !tbaa !66
  %12 = icmp ne ptr %11, null
  br i1 %12, label %13, label %36

13:                                               ; preds = %3
  %14 = load ptr, ptr %6, align 8, !tbaa !60
  %15 = getelementptr inbounds nuw %struct.patch, ptr %14, i32 0, i32 0
  %16 = load ptr, ptr %15, align 8, !tbaa !67
  %17 = icmp ne ptr %16, null
  br i1 %17, label %18, label %36

18:                                               ; preds = %13
  %19 = load ptr, ptr %6, align 8, !tbaa !60
  %20 = getelementptr inbounds nuw %struct.patch, ptr %19, i32 0, i32 1
  %21 = load ptr, ptr %20, align 8, !tbaa !66
  %22 = load ptr, ptr %6, align 8, !tbaa !60
  %23 = getelementptr inbounds nuw %struct.patch, ptr %22, i32 0, i32 0
  %24 = load ptr, ptr %23, align 8, !tbaa !67
  %25 = call i32 @strcmp(ptr noundef %21, ptr noundef %24) #11
  %26 = icmp ne i32 %25, 0
  br i1 %26, label %27, label %36

27:                                               ; preds = %18
  %28 = load ptr, ptr %6, align 8, !tbaa !60
  %29 = getelementptr inbounds nuw %struct.patch, ptr %28, i32 0, i32 1
  %30 = load ptr, ptr %29, align 8, !tbaa !66
  %31 = call i64 @quote_c_style(ptr noundef %30, ptr noundef %7, ptr noundef null, i32 noundef 0)
  call void @strbuf_addstr(ptr noundef %7, ptr noundef @.str.168)
  %32 = load ptr, ptr %6, align 8, !tbaa !60
  %33 = getelementptr inbounds nuw %struct.patch, ptr %32, i32 0, i32 0
  %34 = load ptr, ptr %33, align 8, !tbaa !67
  %35 = call i64 @quote_c_style(ptr noundef %34, ptr noundef %7, ptr noundef null, i32 noundef 0)
  br label %49

36:                                               ; preds = %18, %13, %3
  call void @llvm.lifetime.start.p0(i64 8, ptr %8) #12
  %37 = load ptr, ptr %6, align 8, !tbaa !60
  %38 = getelementptr inbounds nuw %struct.patch, ptr %37, i32 0, i32 0
  %39 = load ptr, ptr %38, align 8, !tbaa !67
  store ptr %39, ptr %8, align 8, !tbaa !11
  %40 = load ptr, ptr %8, align 8, !tbaa !11
  %41 = icmp ne ptr %40, null
  br i1 %41, label %46, label %42

42:                                               ; preds = %36
  %43 = load ptr, ptr %6, align 8, !tbaa !60
  %44 = getelementptr inbounds nuw %struct.patch, ptr %43, i32 0, i32 1
  %45 = load ptr, ptr %44, align 8, !tbaa !66
  store ptr %45, ptr %8, align 8, !tbaa !11
  br label %46

46:                                               ; preds = %42, %36
  %47 = load ptr, ptr %8, align 8, !tbaa !11
  %48 = call i64 @quote_c_style(ptr noundef %47, ptr noundef %7, ptr noundef null, i32 noundef 0)
  call void @llvm.lifetime.end.p0(i64 8, ptr %8) #12
  br label %49

49:                                               ; preds = %46, %27
  %50 = load ptr, ptr %4, align 8, !tbaa !131
  %51 = load ptr, ptr %5, align 8, !tbaa !11
  %52 = getelementptr inbounds nuw %struct.strbuf, ptr %7, i32 0, i32 2
  %53 = load ptr, ptr %52, align 8, !tbaa !82
  %54 = call i32 (ptr, ptr, ...) @fprintf(ptr noundef %50, ptr noundef %51, ptr noundef %53) #12
  %55 = load ptr, ptr %4, align 8, !tbaa !131
  %56 = call i32 @fputc(i32 noundef 10, ptr noundef %55)
  call void @strbuf_release(ptr noundef %7)
  call void @llvm.lifetime.end.p0(i64 24, ptr %7) #12
  ret void
}