; Function Attrs: nounwind uwtable
define internal fastcc void @say_patch_name(ptr noundef captures(none) %0, ptr noundef readonly captures(none) %1, ptr noundef readonly captures(none) %2) unnamed_addr #0 {
  %4 = alloca %struct.strbuf, align 8
  call void @llvm.lifetime.start.p0(i64 24, ptr nonnull %4) #21
  call void @llvm.memcpy.p0.p0.i64(ptr noundef nonnull align 8 dereferenceable(24) %4, ptr noundef nonnull align 8 dereferenceable(24) @__const.show_stats.qname, i64 24, i1 false)
  %5 = getelementptr inbounds nuw i8, ptr %2, i64 8
  %6 = load ptr, ptr %5, align 8, !tbaa !64
  %.not = icmp eq ptr %6, null
  %.pr = load ptr, ptr %2, align 8, !tbaa !65
  %.not18 = icmp eq ptr %.pr, null
  br i1 %.not, label %13, label %7

7:                                                ; preds = %3
  br i1 %.not18, label %.thread, label %8

8:                                                ; preds = %7
  %9 = tail call i32 @strcmp(ptr noundef nonnull dereferenceable(1) %6, ptr noundef nonnull dereferenceable(1) %.pr) #22
  %.not17 = icmp eq i32 %9, 0
  br i1 %.not17, label %.thread20, label %10

10:                                               ; preds = %8
  %11 = call i64 @quote_c_style(ptr noundef nonnull %6, ptr noundef nonnull %4, ptr noundef null, i32 noundef 0) #21
  call void @strbuf_add(ptr noundef nonnull %4, ptr noundef nonnull @.str.168, i64 noundef 4) #21
  %12 = load ptr, ptr %2, align 8, !tbaa !65
  br label %.thread20

13:                                               ; preds = %3
  br i1 %.not18, label %.thread, label %.thread20

.thread:                                          ; preds = %7, %13
  br label %.thread20

.thread20:                                        ; preds = %13, %.thread, %8, %10
  %.0.sink = phi ptr [ %12, %10 ], [ %.pr, %13 ], [ %6, %.thread ], [ %.pr, %8 ]
  %14 = call i64 @quote_c_style(ptr noundef %.0.sink, ptr noundef nonnull %4, ptr noundef null, i32 noundef 0) #21
  %15 = getelementptr inbounds nuw i8, ptr %4, i64 16
  %16 = load ptr, ptr %15, align 8, !tbaa !69
  %17 = call i32 (ptr, ptr, ...) @fprintf(ptr noundef %0, ptr noundef %1, ptr noundef %16) #21
  %18 = call i32 @fputc(i32 noundef 10, ptr noundef %0)
  call void @strbuf_release(ptr noundef nonnull %4) #21
  call void @llvm.lifetime.end.p0(i64 24, ptr nonnull %4) #21
  ret void
}